; Function Attrs: mustprogress uwtable
define void @_ZNK5ZXing6QRCode6Writer6encodeERKNSt7__cxx1112basic_stringIwSt11char_traitsIwESaIwEEEii(ptr dead_on_unwind noalias writable sret(%"class.ZXing::BitMatrix") align 8 %0, ptr noundef nonnull readonly align 4 captures(none) dereferenceable(24) %1, ptr noundef nonnull align 8 dereferenceable(32) %2, i32 noundef %3, i32 noundef %4) local_unnamed_addr #1 align 2 personality ptr @__gxx_personality_v0 {
  %6 = alloca %"class.ZXing::QRCode::EncodeResult", align 8
  %7 = getelementptr inbounds nuw i8, ptr %2, i64 8
  %8 = load i64, ptr %7, align 8, !tbaa !16
  %9 = icmp eq i64 %8, 0
  br i1 %9, label %10, label %15

10:                                               ; preds = %5
  %11 = tail call ptr @__cxa_allocate_exception(i64 16) #8
  invoke void @_ZNSt16invalid_argumentC1EPKc(ptr noundef nonnull align 8 dereferenceable(16) %11, ptr noundef nonnull @.str)
          to label %12 unwind label %13

12:                                               ; preds = %10
  tail call void @__cxa_throw(ptr nonnull %11, ptr nonnull @_ZTISt16invalid_argument, ptr nonnull @_ZNSt16invalid_argumentD1Ev) #9
  unreachable

13:                                               ; preds = %10
  %14 = landingpad { ptr, i32 }
          cleanup
  tail call void @__cxa_free_exception(ptr nonnull %11) #8
  br label %55

15:                                               ; preds = %5
  %16 = or i32 %4, %3
  %or.cond.not = icmp sgt i32 %16, -1
  br i1 %or.cond.not, label %22, label %17

17:                                               ; preds = %15
  %18 = tail call ptr @__cxa_allocate_exception(i64 16) #8
  invoke void @_ZNSt16invalid_argumentC1EPKc(ptr noundef nonnull align 8 dereferenceable(16) %18, ptr noundef nonnull @.str.1)
          to label %19 unwind label %20

19:                                               ; preds = %17
  tail call void @__cxa_throw(ptr nonnull %18, ptr nonnull @_ZTISt16invalid_argument, ptr nonnull @_ZNSt16invalid_argumentD1Ev) #9
  unreachable

20:                                               ; preds = %17
  %21 = landingpad { ptr, i32 }
          cleanup
  tail call void @__cxa_free_exception(ptr nonnull %18) #8
  br label %55

22:                                               ; preds = %15
  call void @llvm.lifetime.start.p0(i64 56, ptr nonnull %6) #8
  %23 = getelementptr inbounds nuw i8, ptr %1, i64 4
  %24 = load i32, ptr %23, align 4, !tbaa !11
  %25 = getelementptr inbounds nuw i8, ptr %1, i64 8
  %26 = load i8, ptr %25, align 4, !tbaa !12
  %27 = getelementptr inbounds nuw i8, ptr %1, i64 12
  %28 = load i32, ptr %27, align 4, !tbaa !13
  %29 = getelementptr inbounds nuw i8, ptr %1, i64 16
  %30 = load i8, ptr %29, align 4, !tbaa !14, !range !22, !noundef !23
  %31 = trunc nuw i8 %30 to i1
  %32 = getelementptr inbounds nuw i8, ptr %1, i64 20
  %33 = load i32, ptr %32, align 4, !tbaa !15
  call void @_ZN5ZXing6QRCode6EncodeERKNSt7__cxx1112basic_stringIwSt11char_traitsIwESaIwEEENS0_20ErrorCorrectionLevelENS_12CharacterSetEibi(ptr dead_on_unwind nonnull writable sret(%"class.ZXing::QRCode::EncodeResult") align 8 %6, ptr noundef nonnull align 8 dereferenceable(32) %2, i32 noundef %24, i8 noundef zeroext %26, i32 noundef %28, i1 noundef zeroext %31, i32 noundef %33)
  %34 = getelementptr inbounds nuw i8, ptr %6, i64 24
  %35 = load i32, ptr %1, align 4, !tbaa !3
  invoke void @_ZN5ZXing7InflateEONS_9BitMatrixEiii(ptr dead_on_unwind writable sret(%"class.ZXing::BitMatrix") align 8 %0, ptr noundef nonnull align 8 dereferenceable(32) %34, i32 noundef %3, i32 noundef %4, i32 noundef %35)
          to label %36 unwind label %45

36:                                               ; preds = %22
  %37 = getelementptr inbounds nuw i8, ptr %6, i64 32
  %38 = load ptr, ptr %37, align 8, !tbaa !24
  %.not.i.i.i.i.i = icmp eq ptr %38, null
  br i1 %.not.i.i.i.i.i, label %_ZN5ZXing6QRCode12EncodeResultD2Ev.exit, label %39

39:                                               ; preds = %36
  %40 = getelementptr inbounds nuw i8, ptr %6, i64 48
  %41 = load ptr, ptr %40, align 8, !tbaa !27
  %42 = ptrtoint ptr %41 to i64
  %43 = ptrtoint ptr %38 to i64
  %44 = sub i64 %42, %43
  call void @_ZdlPvm(ptr noundef nonnull %38, i64 noundef %44) #10
  br label %_ZN5ZXing6QRCode12EncodeResultD2Ev.exit

_ZN5ZXing6QRCode12EncodeResultD2Ev.exit:          ; preds = %36, %39
  call void @llvm.lifetime.end.p0(i64 56, ptr nonnull %6) #8
  ret void

45:                                               ; preds = %22
  %46 = landingpad { ptr, i32 }
          cleanup
  %47 = getelementptr inbounds nuw i8, ptr %6, i64 32
  %48 = load ptr, ptr %47, align 8, !tbaa !24
  %.not.i.i.i.i.i13 = icmp eq ptr %48, null
  br i1 %.not.i.i.i.i.i13, label %_ZN5ZXing6QRCode12EncodeResultD2Ev.exit14, label %49

49:                                               ; preds = %45
  %50 = getelementptr inbounds nuw i8, ptr %6, i64 48
  %51 = load ptr, ptr %50, align 8, !tbaa !27
  %52 = ptrtoint ptr %51 to i64
  %53 = ptrtoint ptr %48 to i64
  %54 = sub i64 %52, %53
  call void @_ZdlPvm(ptr noundef nonnull %48, i64 noundef %54) #10
  br label %_ZN5ZXing6QRCode12EncodeResultD2Ev.exit14

_ZN5ZXing6QRCode12EncodeResultD2Ev.exit14:        ; preds = %45, %49
  call void @llvm.lifetime.end.p0(i64 56, ptr nonnull %6) #8
  br label %55

55:                                               ; preds = %_ZN5ZXing6QRCode12EncodeResultD2Ev.exit14, %20, %13
  %.pn = phi { ptr, i32 } [ %14, %13 ], [ %21, %20 ], [ %46, %_ZN5ZXing6QRCode12EncodeResultD2Ev.exit14 ]
  resume { ptr, i32 } %.pn
}